; ModuleID = '34/1909.c'
source_filename = "34/1909.c"
target datalayout = "e-m:e-p270:32:32-p271:32:32-p272:64:64-i64:64-f80:128-n8:16:32:64-S128"
target triple = "x86_64-pc-linux-gnu"

@.str = private unnamed_addr constant [3 x i8] c"%d\00", align 1
@.str.1 = private unnamed_addr constant [4 x i8] c"End\00", align 1
@.str.2 = private unnamed_addr constant [9 x i8] c"%d/2=%d\0A\00", align 1
@.str.3 = private unnamed_addr constant [11 x i8] c"%d*3+1=%d\0A\00", align 1

; Function Attrs: noinline nounwind uwtable
define dso_local i32 @main() #0 {
  %1 = alloca i32, align 4
  %2 = alloca i32, align 4
  store i32 0, i32* %1, align 4
  %3 = call i32 (i8*, ...) @__isoc99_scanf(i8* getelementptr inbounds ([3 x i8], [3 x i8]* @.str, i64 0, i64 0), i32* %2)
  %4 = load i32, i32* %2, align 4
  %5 = icmp eq i32 %4, 1
  br i1 %5, label %6, label %8

6:                                                ; preds = %0
  %7 = call i32 (i8*, ...) @printf(i8* getelementptr inbounds ([4 x i8], [4 x i8]* @.str.1, i64 0, i64 0))
  br label %37

8:                                                ; preds = %0
  br label %9

9:                                                ; preds = %35, %8
  %10 = load i32, i32* %2, align 4
  %11 = srem i32 %10, 2
  %12 = icmp eq i32 %11, 0
  br i1 %12, label %13, label %20

13:                                               ; preds = %9
  %14 = load i32, i32* %2, align 4
  %15 = load i32, i32* %2, align 4
  %16 = sdiv i32 %15, 2
  %17 = call i32 (i8*, ...) @printf(i8* getelementptr inbounds ([9 x i8], [9 x i8]* @.str.2, i64 0, i64 0), i32 %14, i32 %16)
  %18 = load i32, i32* %2, align 4
  %19 = sdiv i32 %18, 2
  store i32 %19, i32* %2, align 4
  br label %35

20:                                               ; preds = %9
  %21 = load i32, i32* %2, align 4
  %22 = icmp eq i32 %21, 1
  br i1 %22, label %23, label %25

23:                                               ; preds = %20
  %24 = call i32 (i8*, ...) @printf(i8* getelementptr inbounds ([4 x i8], [4 x i8]* @.str.1, i64 0, i64 0))
  br label %36

25:                                               ; preds = %20
  %26 = load i32, i32* %2, align 4
  %27 = load i32, i32* %2, align 4
  %28 = mul nsw i32 3, %27
  %29 = add nsw i32 %28, 1
  %30 = call i32 (i8*, ...) @printf(i8* getelementptr inbounds ([11 x i8], [11 x i8]* @.str.3, i64 0, i64 0), i32 %26, i32 %29)
  %31 = load i32, i32* %2, align 4
  %32 = mul nsw i32 3, %31
  %33 = add nsw i32 %32, 1
  store i32 %33, i32* %2, align 4
  br label %34

34:                                               ; preds = %25
  br label %35

35:                                               ; preds = %34, %13
  br label %9

36:                                               ; preds = %23
  br label %37

37:                                               ; preds = %36, %6
  %38 = load i32, i32* %1, align 4
  ret i32 %38
}

declare dso_local i32 @__isoc99_scanf(i8*, ...) #1

declare dso_local i32 @printf(i8*, ...) #1


!llvm.module.flags = !{!0}
!llvm.ident = !{!1}

!0 = !{i32 1, !"wchar_size", i32 4}
!1 = !{!"clang version 10.0.0-4ubuntu1 "}
